#include <math.h>
#include <stdio.h>
#include <stdlib.h>
#include <string.h>

int main(){
    int n,i,l,k;
    char zfc[50][33];
    scanf("%d",&n);
    for(i=0;i<n;i++){
        scanf("%s",zfc[i]);
        l=strlen(zfc[i]);
      
        if(zfc[i][l-1]=='r'||zfc[i][l-1]=='y'){
           for(k=0;k<l-2;k++){
                printf("%c",zfc[i][k]);
                if(k==l-3){printf("\n");}
            }
        }
         if(zfc[i][l-1]=='g'){
            for(k=0;k<l-3;k++){
                printf("%c",zfc[i][k]);
                if(k==l-4){printf("\n");}
            }
        }
    }
    return 0;
    }



